c__builtin__
set
p0
((lp1
S'fantastic'
p2
aS'with pleasure'
p3
aS'pardon'
p4
aS'absolutely'
p5
aS'pardon me'
p6
aS'prefer'
p7
aS'thanks'
p8
aS'seem'
p9
aS'certainly'
p10
aS'thank'
p11
aS'perhaps'
p12
aS'please'
p13
aS'wonderful'
p14
aS'thanx'
p15
aS"you're welcome"
p16
aS'sorry'
p17
aS'hope'
p18
aS'welcome'
p19
aS'pls'
p20
aS'reassure'
p21
aS'exactly'
p22
aS'excuse'
p23
aS'a little'
p24
aS'valued'
p25
aS'especially'
p26
aS'marvellous'
p27
aS'thank you'
p28
aS'delightful'
p29
aS'a little bit'
p30
aS'slightly'
p31
atp32
Rp33
.